target datalayout = "e-m:e-p270:32:32-p271:32:32-p272:64:64-i64:64-i128:128-f80:128-n8:16:32:64-S128"
target triple = "x86_64-pc-linux-gnu"

%struct.shm_mq_handle = type { ptr, ptr, ptr, ptr, i64, i64, i64, i64, i64, i8, i8, ptr }

@CurrentMemoryContext = external global ptr, align 8

; Function Attrs: inlinehint nounwind uwtable
define internal i64 @PointerGetDatum(ptr noundef %0) #2 {
  %2 = alloca ptr, align 8
  store ptr %0, ptr %2, align 8
  %3 = load ptr, ptr %2, align 8
  %4 = ptrtoint ptr %3 to i64
  ret i64 %4
}

; Function Attrs: nounwind uwtable
define dso_local ptr @shm_mq_attach(ptr noundef %0, ptr noundef %1, ptr noundef %2) #0 {
  %4 = alloca ptr, align 8
  %5 = alloca ptr, align 8
  %6 = alloca ptr, align 8
  %7 = alloca ptr, align 8
  store ptr %0, ptr %4, align 8
  store ptr %1, ptr %5, align 8
  store ptr %2, ptr %6, align 8
  call void @llvm.lifetime.start.p0(i64 8, ptr %7) #8
  %8 = call ptr @palloc(i64 noundef 88)
  store ptr %8, ptr %7, align 8
  %9 = load ptr, ptr %4, align 8
  %10 = load ptr, ptr %7, align 8
  %11 = getelementptr inbounds nuw %struct.shm_mq_handle, ptr %10, i32 0, i32 0
  store ptr %9, ptr %11, align 8
  %12 = load ptr, ptr %5, align 8
  %13 = load ptr, ptr %7, align 8
  %14 = getelementptr inbounds nuw %struct.shm_mq_handle, ptr %13, i32 0, i32 1
  store ptr %12, ptr %14, align 8
  %15 = load ptr, ptr %6, align 8
  %16 = load ptr, ptr %7, align 8
  %17 = getelementptr inbounds nuw %struct.shm_mq_handle, ptr %16, i32 0, i32 2
  store ptr %15, ptr %17, align 8
  %18 = load ptr, ptr %7, align 8
  %19 = getelementptr inbounds nuw %struct.shm_mq_handle, ptr %18, i32 0, i32 3
  store ptr null, ptr %19, align 8
  %20 = load ptr, ptr %7, align 8
  %21 = getelementptr inbounds nuw %struct.shm_mq_handle, ptr %20, i32 0, i32 4
  store i64 0, ptr %21, align 8
  %22 = load ptr, ptr %7, align 8
  %23 = getelementptr inbounds nuw %struct.shm_mq_handle, ptr %22, i32 0, i32 5
  store i64 0, ptr %23, align 8
  %24 = load ptr, ptr %7, align 8
  %25 = getelementptr inbounds nuw %struct.shm_mq_handle, ptr %24, i32 0, i32 6
  store i64 0, ptr %25, align 8
  %26 = load ptr, ptr %7, align 8
  %27 = getelementptr inbounds nuw %struct.shm_mq_handle, ptr %26, i32 0, i32 7
  store i64 0, ptr %27, align 8
  %28 = load ptr, ptr %7, align 8
  %29 = getelementptr inbounds nuw %struct.shm_mq_handle, ptr %28, i32 0, i32 8
  store i64 0, ptr %29, align 8
  %30 = load ptr, ptr %7, align 8
  %31 = getelementptr inbounds nuw %struct.shm_mq_handle, ptr %30, i32 0, i32 9
  store i8 0, ptr %31, align 8
  %32 = load ptr, ptr %7, align 8
  %33 = getelementptr inbounds nuw %struct.shm_mq_handle, ptr %32, i32 0, i32 10
  store i8 0, ptr %33, align 1
  %34 = load ptr, ptr @CurrentMemoryContext, align 8
  %35 = load ptr, ptr %7, align 8
  %36 = getelementptr inbounds nuw %struct.shm_mq_handle, ptr %35, i32 0, i32 11
  store ptr %34, ptr %36, align 8
  %37 = load ptr, ptr %5, align 8
  %38 = icmp ne ptr %37, null
  br i1 %38, label %39, label %43

39:                                               ; preds = %3
  %40 = load ptr, ptr %5, align 8
  %41 = load ptr, ptr %4, align 8
  %42 = call i64 @PointerGetDatum(ptr noundef %41)
  call void @on_dsm_detach(ptr noundef %40, ptr noundef @shm_mq_detach_callback, i64 noundef %42)
  br label %43

43:                                               ; preds = %39, %3
  %44 = load ptr, ptr %7, align 8
  call void @llvm.lifetime.end.p0(i64 8, ptr %7) #8
  ret ptr %44
}