; Function Attrs: nounwind uwtable
define dso_local noundef ptr @shm_mq_attach(ptr noundef %0, ptr noundef %1, ptr noundef %2) local_unnamed_addr #0 {
  %4 = tail call ptr @palloc(i64 noundef 88) #11
  store ptr %0, ptr %4, align 8
  %5 = getelementptr inbounds nuw i8, ptr %4, i64 8
  store ptr %1, ptr %5, align 8
  %6 = getelementptr inbounds nuw i8, ptr %4, i64 16
  store ptr %2, ptr %6, align 8
  %7 = getelementptr inbounds nuw i8, ptr %4, i64 24
  tail call void @llvm.memset.p0.i64(ptr noundef nonnull align 8 dereferenceable(50) %7, i8 0, i64 50, i1 false)
  %8 = load ptr, ptr @CurrentMemoryContext, align 8
  %9 = getelementptr inbounds nuw i8, ptr %4, i64 80
  store ptr %8, ptr %9, align 8
  %.not = icmp eq ptr %1, null
  br i1 %.not, label %12, label %10

10:                                               ; preds = %3
  %11 = ptrtoint ptr %0 to i64
  tail call void @on_dsm_detach(ptr noundef nonnull %1, ptr noundef nonnull @shm_mq_detach_callback, i64 noundef %11) #11
  br label %12

12:                                               ; preds = %10, %3
  ret ptr %4
}